; Function Attrs: mustprogress nounwind uwtable
define dso_local i64 @_ZNK5clang9ModuleMap13resolveExportEPNS_6ModuleERKNS1_20UnresolvedExportDeclEb(ptr noundef nonnull align 8 dereferenceable(1344) %0, ptr noundef %1, ptr noundef nonnull align 8 dereferenceable(105) %2, i1 noundef zeroext %3) local_unnamed_addr #1 align 2 {
  %5 = getelementptr inbounds nuw i8, ptr %2, i64 8
  %6 = tail call noundef zeroext i1 @_ZNK4llvm15SmallVectorBaseIjE5emptyEv(ptr noundef nonnull align 8 dereferenceable(16) %5) #21
  br i1 %6, label %17, label %7

7:                                                ; preds = %4
  %8 = tail call noundef ptr @_ZNK5clang9ModuleMap15resolveModuleIdERKN4llvm11SmallVectorISt4pairINSt7__cxx1112basic_stringIcSt11char_traitsIcESaIcEEENS_14SourceLocationEELj2EEEPNS_6ModuleEb(ptr noundef nonnull align 8 dereferenceable(1344) %0, ptr noundef nonnull align 8 dereferenceable(96) %5, ptr noundef %1, i1 noundef zeroext %3)
  %.not = icmp eq ptr %8, null
  br i1 %.not, label %17, label %9

9:                                                ; preds = %7
  %10 = getelementptr inbounds nuw i8, ptr %2, i64 104
  %11 = load i8, ptr %10, align 8
  %12 = trunc i8 %11 to i1
  %13 = ptrtoint ptr %8 to i64
  %14 = and i64 %13, -5
  %15 = select i1 %12, i64 4, i64 0
  %16 = or disjoint i64 %15, %14
  br label %17

17:                                               ; preds = %7, %4, %9
  %.sroa.0.0 = phi i64 [ %16, %9 ], [ 4, %4 ], [ 0, %7 ]
  ret i64 %.sroa.0.0
}